target datalayout = "e-m:e-p270:32:32-p271:32:32-p272:64:64-i64:64-i128:128-f80:128-n8:16:32:64-S128"
target triple = "x86_64-pc-linux-gnu"

@.str.84 = private unnamed_addr constant [14 x i8] c"\22ID_INTERNAL(\00", align 1
@.str.85 = private unnamed_addr constant [3 x i8] c")\22\00", align 1

; Function Attrs: inlinehint nounwind sspstrong uwtable
define internal i32 @rb_id_to_serial(i64 noundef %0) #6 {
  %2 = alloca i32, align 4
  %3 = alloca i64, align 8
  store i64 %0, ptr %3, align 8, !tbaa !6
  %4 = load i64, ptr %3, align 8, !tbaa !6
  %5 = icmp ugt i64 %4, 170
  br i1 %5, label %6, label %10

6:                                                ; preds = %1
  %7 = load i64, ptr %3, align 8, !tbaa !6
  %8 = lshr i64 %7, 4
  %9 = trunc i64 %8 to i32
  store i32 %9, ptr %2, align 4
  br label %13

10:                                               ; preds = %1
  %11 = load i64, ptr %3, align 8, !tbaa !6
  %12 = trunc i64 %11 to i32
  store i32 %12, ptr %2, align 4
  br label %13

13:                                               ; preds = %10, %6
  %14 = load i32, ptr %2, align 4
  ret i32 %14
}

; Function Attrs: inlinehint nounwind sspstrong willreturn memory(none) uwtable
define internal zeroext i1 @RB_TEST(i64 noundef %0) #4 {
  %2 = alloca i64, align 8
  store i64 %0, ptr %2, align 8, !tbaa !6
  %3 = load i64, ptr %2, align 8, !tbaa !6
  %4 = and i64 %3, -5
  %5 = icmp ne i64 %4, 0
  ret i1 %5
}

; Function Attrs: inlinehint nounwind sspstrong uwtable
define internal void @dump_append_id(ptr noundef %0, i64 noundef %1) #6 {
  %3 = alloca ptr, align 8
  %4 = alloca i64, align 8
  %5 = alloca i64, align 8
  %6 = alloca i64, align 8
  store ptr %0, ptr %3, align 8, !tbaa !18
  store i64 %1, ptr %4, align 8, !tbaa !6
  call void @llvm.lifetime.start.p0(i64 8, ptr %5) #21
  %7 = load i64, ptr %4, align 8, !tbaa !6
  %8 = call i1 @llvm.is.constant.i64(i64 %7)
  br i1 %8, label %9, label %20

9:                                                ; preds = %2
  %10 = load i64, ptr %4, align 8, !tbaa !6
  %11 = and i64 %10, 1
  %12 = icmp ne i64 %11, 0
  br i1 %12, label %16, label %13

13:                                               ; preds = %9
  %14 = load i64, ptr %4, align 8, !tbaa !6
  %15 = icmp ugt i64 %14, 170
  br i1 %15, label %20, label %16

16:                                               ; preds = %13, %9
  %17 = load i64, ptr %4, align 8, !tbaa !6
  %18 = shl i64 %17, 8
  %19 = or i64 %18, 12
  br label %23

20:                                               ; preds = %13, %2
  %21 = load i64, ptr %4, align 8, !tbaa !6
  %22 = call i64 @rb_id2sym(i64 noundef %21)
  br label %23

23:                                               ; preds = %20, %16
  %24 = phi i64 [ %19, %16 ], [ %22, %20 ]
  store i64 %24, ptr %6, align 8, !tbaa !6
  %25 = load i64, ptr %6, align 8, !tbaa !6
  %26 = call i64 @rb_sym2str(i64 noundef %25)
  store i64 %26, ptr %5, align 8, !tbaa !6
  %27 = load i64, ptr %5, align 8, !tbaa !6
  %28 = call zeroext i1 @RB_TEST(i64 noundef %27) #22
  br i1 %28, label %29, label %32

29:                                               ; preds = %23
  %30 = load ptr, ptr %3, align 8, !tbaa !18
  %31 = load i64, ptr %5, align 8, !tbaa !6
  call void @dump_append_string_value(ptr noundef %30, i64 noundef %31)
  br label %39

32:                                               ; preds = %23
  %33 = load ptr, ptr %3, align 8, !tbaa !18
  call void @buffer_append(ptr noundef %33, ptr noundef @.str.84, i64 noundef 13)
  %34 = load ptr, ptr %3, align 8, !tbaa !18
  %35 = load i64, ptr %4, align 8, !tbaa !6
  %36 = call i32 @rb_id_to_serial(i64 noundef %35)
  %37 = zext i32 %36 to i64
  call void @dump_append_sizet(ptr noundef %34, i64 noundef %37)
  %38 = load ptr, ptr %3, align 8, !tbaa !18
  call void @buffer_append(ptr noundef %38, ptr noundef @.str.85, i64 noundef 2)
  br label %39

39:                                               ; preds = %32, %29
  call void @llvm.lifetime.end.p0(i64 8, ptr %5) #21
  ret void
}