; Function Attrs: inlinehint nounwind sspstrong uwtable
define internal fastcc void @dump_append_id(ptr noundef %0, i64 noundef %1) unnamed_addr #6 {
  %3 = tail call i64 @rb_id2sym(i64 noundef %1) #12
  %4 = tail call i64 @rb_sym2str(i64 noundef %3) #12
  %5 = and i64 %4, -5
  %.not = icmp eq i64 %5, 0
  br i1 %.not, label %7, label %6

6:                                                ; preds = %2
  tail call fastcc void @dump_append_string_value(ptr noundef %0, i64 noundef %4)
  br label %11

7:                                                ; preds = %2
  tail call fastcc void @buffer_append(ptr noundef %0, ptr noundef nonnull @.str.84, i64 noundef 13)
  %8 = icmp ugt i64 %1, 170
  %9 = lshr i64 %1, 4
  %.0.in.i = select i1 %8, i64 %9, i64 %1
  %10 = and i64 %.0.in.i, 4294967295
  tail call fastcc void @dump_append_sizet(ptr noundef %0, i64 noundef %10)
  tail call fastcc void @buffer_append(ptr noundef %0, ptr noundef nonnull @.str.85, i64 noundef 2)
  br label %11

11:                                               ; preds = %7, %6
  ret void
}